ccopy_reg
_reconstructor
p1
(cxmppd.modules.db_fake
DictWatch
p2
c__builtin__
dict
p3
(dp4
S'127.0.0.1'
p5
g1
(g2
g3
(dp6
S'acc'
p7
g1
(g2
g3
(dp8
S'name'
p9
S'ACC'
p10
sS'groups'
p11
g1
(g2
g3
(dtRp12
sS'roster'
p13
g1
(g2
g3
(dtRp14
sS'anon_allow'
p15
S'yes'
p16
sS'password'
p17
S'btPoutVm'
p18
sS'storage'
p19
g1
(g2
g3
(dtRp20
stRp21
sS'df'
p22
g1
(g2
g3
(dp23
g9
S'DF'
p24
sg11
g1
(g2
g3
(dtRp25
sg13
g1
(g2
g3
(dtRp26
sg15
g16
sg17
S'xkWFRPMw'
p27
sg19
g1
(g2
g3
(dtRp28
stRp29
sS'ams'
p30
g1
(g2
g3
(dp31
g9
S'AMS'
p32
sg11
g1
(g2
g3
(dtRp33
sg13
g1
(g2
g3
(dp34
S'your_jid@127.0.0.1'
p35
(dp36
S'state'
p37
S''
sS'subscription'
p38
S'none'
p39
sstRp40
sg15
g16
sg17
S'BehSHNWf'
p41
sg19
g1
(g2
g3
(dtRp42
stRp43
sVyour_jid
p44
g1
(g2
g3
(dp45
g9
Vyour_jid
p46
sg11
g1
(g2
g3
(dtRp47
sg13
g1
(g2
g3
(dp48
Vams.127.0.0.1
p49
(dp50
g37
S''
sg38
g39
sstRp51
sg15
g16
sg17
Vsecret
p52
sg19
g1
(g2
g3
(dtRp53
stRp54
sS'__ir__'
p55
(dp56
g15
g16
sg17
S'test'
p57
sg19
(dp58
S'karma'
p59
(dp60
S'down'
p61
I307200
sS'tot_up'
p62
I0
sS'tot_down'
p63
I0
sS'up'
p64
I307200307200307200
sS'last_time'
p65
F0
sssg11
(dp66
sg13
(dp67
sstRp68
stRp69
.